; Function Attrs: null_pointer_is_valid sspstrong uwtable
define internal void @write_pdu_label_and_info(ptr noundef %0, ptr noundef %1, ptr noundef readonly captures(none) %2, ptr noundef %3, ...) unnamed_addr #0 {
  %5 = alloca [1 x %struct.__va_list_tag], align 16
  call void @llvm.lifetime.start.p0(i64 24, ptr nonnull %5) #17
  call void @llvm.va_start.p0(ptr nonnull %5)
  %6 = call i32 @__vsnprintf_chk(ptr noundef nonnull @write_pdu_label_and_info.info_buffer, i64 noundef 256, i32 noundef 2, i64 noundef 256, ptr noundef %3, ptr noundef nonnull %5) #17
  call void @llvm.va_end.p0(ptr nonnull %5)
  %7 = getelementptr inbounds nuw i8, ptr %2, i64 8
  %8 = load ptr, ptr %7, align 8
  call void @col_append_str(ptr noundef %8, i32 noundef 25, ptr noundef nonnull @write_pdu_label_and_info.info_buffer)
  call void (ptr, ptr, ...) @proto_item_append_text(ptr noundef %0, ptr noundef nonnull @.str.321, ptr noundef nonnull @write_pdu_label_and_info.info_buffer)
  %.not = icmp eq ptr %1, null
  br i1 %.not, label %10, label %9

9:                                                ; preds = %4
  call void (ptr, ptr, ...) @proto_item_append_text(ptr noundef nonnull %1, ptr noundef nonnull @.str.321, ptr noundef nonnull @write_pdu_label_and_info.info_buffer)
  br label %10

10:                                               ; preds = %9, %4
  call void @llvm.lifetime.end.p0(i64 24, ptr nonnull %5) #17
  ret void
}